target datalayout = "e-m:e-p270:32:32-p271:32:32-p272:64:64-i64:64-i128:128-f80:128-n8:16:32:64-S128"
target triple = "x86_64-pc-linux-gnu"

%struct.X509_crl_st = type { %struct.X509_crl_info_st, %struct.X509_algor_st, %struct.asn1_string_st, %struct.CRYPTO_REF_COUNT, i32, ptr, ptr, i32, i32, ptr, ptr, ptr, [20 x i8], ptr, ptr, ptr, ptr, ptr }
%struct.X509_crl_info_st = type { ptr, %struct.X509_algor_st, ptr, ptr, ptr, ptr, ptr, %struct.ASN1_ENCODING_st }
%struct.ASN1_ENCODING_st = type { ptr, i64, i32 }
%struct.X509_algor_st = type { ptr, ptr }
%struct.asn1_string_st = type { i32, i32, ptr, i64 }
%struct.CRYPTO_REF_COUNT = type { i32 }

; Function Attrs: nounwind uwtable
define void @X509_CRL_get0_signature(ptr noundef %0, ptr noundef %1, ptr noundef %2) #0 {
  %4 = alloca ptr, align 8
  %5 = alloca ptr, align 8
  %6 = alloca ptr, align 8
  store ptr %0, ptr %4, align 8, !tbaa !3
  store ptr %1, ptr %5, align 8, !tbaa !50
  store ptr %2, ptr %6, align 8, !tbaa !52
  %7 = load ptr, ptr %5, align 8, !tbaa !50
  %8 = icmp ne ptr %7, null
  br i1 %8, label %9, label %13

9:                                                ; preds = %3
  %10 = load ptr, ptr %4, align 8, !tbaa !3
  %11 = getelementptr inbounds nuw %struct.X509_crl_st, ptr %10, i32 0, i32 2
  %12 = load ptr, ptr %5, align 8, !tbaa !50
  store ptr %11, ptr %12, align 8, !tbaa !32
  br label %13

13:                                               ; preds = %9, %3
  %14 = load ptr, ptr %6, align 8, !tbaa !52
  %15 = icmp ne ptr %14, null
  br i1 %15, label %16, label %20

16:                                               ; preds = %13
  %17 = load ptr, ptr %4, align 8, !tbaa !3
  %18 = getelementptr inbounds nuw %struct.X509_crl_st, ptr %17, i32 0, i32 1
  %19 = load ptr, ptr %6, align 8, !tbaa !52
  store ptr %18, ptr %19, align 8, !tbaa !54
  br label %20

20:                                               ; preds = %16, %13
  ret void
}