; Function Attrs: mustprogress nofree norecurse nosync nounwind willreturn memory(argmem: write) uwtable
define void @X509_CRL_get0_signature(ptr noundef %0, ptr noundef writeonly captures(address_is_null) %1, ptr noundef writeonly captures(address_is_null) %2) local_unnamed_addr #4 {
  %.not = icmp eq ptr %1, null
  br i1 %.not, label %6, label %4

4:                                                ; preds = %3
  %5 = getelementptr inbounds nuw i8, ptr %0, i64 104
  store ptr %5, ptr %1, align 8, !tbaa !38
  br label %6

6:                                                ; preds = %4, %3
  %.not7 = icmp eq ptr %2, null
  br i1 %.not7, label %9, label %7

7:                                                ; preds = %6
  %8 = getelementptr inbounds nuw i8, ptr %0, i64 88
  store ptr %8, ptr %2, align 8, !tbaa !39
  br label %9

9:                                                ; preds = %7, %6
  ret void
}